; Function Attrs: nounwind uwtable
define hidden i32 @drsuapi_dissect_struct_DsBindInfo24(ptr noundef %0, i32 noundef %1, ptr noundef %2, ptr noundef %3, ptr noundef %4, ptr noundef %5, i32 noundef %6, i32 %7) local_unnamed_addr #0 {
  %9 = getelementptr inbounds nuw i8, ptr %4, i64 28
  %10 = load i32, ptr %9, align 4
  %.not = icmp ne i32 %10, 0
  %11 = and i32 %1, 3
  %.not38 = icmp eq i32 %11, 0
  %or.cond = or i1 %.not38, %.not
  %12 = and i32 %1, -4
  %13 = add i32 %12, 4
  %.0 = select i1 %or.cond, i32 %1, i32 %13
  %.not39 = icmp eq ptr %3, null
  br i1 %.not39, label %18, label %14

14:                                               ; preds = %8
  %15 = tail call ptr @proto_tree_add_item(ptr noundef nonnull %3, i32 noundef %6, ptr noundef %0, i32 noundef %.0, i32 noundef -1, i32 noundef 0) #5
  %16 = load i32, ptr @ett_drsuapi_drsuapi_DsBindInfo24, align 4
  %17 = tail call ptr @proto_item_add_subtree(ptr noundef %15, i32 noundef %16) #5
  br label %18

18:                                               ; preds = %14, %8
  %.036 = phi ptr [ %15, %14 ], [ null, %8 ]
  %.035 = phi ptr [ %17, %14 ], [ null, %8 ]
  %19 = load i32, ptr @hf_drsuapi_drsuapi_DsBindInfo24_supported_extensions, align 4
  %20 = tail call i32 @drsuapi_dissect_bitmap_SupportedExtensions(ptr noundef %0, i32 noundef %.0, ptr noundef %2, ptr noundef %.035, ptr noundef nonnull %4, ptr noundef %5, i32 noundef %19, i32 poison)
  %21 = load i32, ptr @hf_drsuapi_drsuapi_DsBindInfo24_site_guid, align 4
  %22 = tail call i32 @dissect_ndr_uuid_t(ptr noundef %0, i32 noundef %20, ptr noundef %2, ptr noundef %.035, ptr noundef nonnull %4, ptr noundef %5, i32 noundef %21, ptr noundef null) #5
  %23 = load i32, ptr @hf_drsuapi_drsuapi_DsBindInfo24_pid, align 4
  %24 = tail call i32 @PIDL_dissect_uint32(ptr noundef %0, i32 noundef %22, ptr noundef %2, ptr noundef %.035, ptr noundef nonnull %4, ptr noundef %5, i32 noundef %23, i32 noundef 0) #5
  %25 = sub i32 %24, %.0
  tail call void @proto_item_set_len(ptr noundef %.036, i32 noundef %25) #5
  %26 = getelementptr inbounds nuw i8, ptr %4, i64 72
  %27 = load ptr, ptr %26, align 8
  %28 = getelementptr inbounds nuw i8, ptr %27, i64 96
  %29 = load i32, ptr %28, align 8
  %30 = and i32 %29, 1
  %.not40 = icmp eq i32 %30, 0
  br i1 %.not40, label %37, label %31

31:                                               ; preds = %18
  %32 = load i32, ptr %9, align 4
  %.not41 = icmp ne i32 %32, 0
  %33 = and i32 %24, 3
  %.not42 = icmp eq i32 %33, 0
  %or.cond43 = or i1 %.not42, %.not41
  br i1 %or.cond43, label %37, label %34

34:                                               ; preds = %31
  %35 = and i32 %24, -4
  %36 = add i32 %35, 4
  br label %37

37:                                               ; preds = %31, %34, %18
  %.1 = phi i32 [ %24, %31 ], [ %36, %34 ], [ %24, %18 ]
  ret i32 %.1
}